(dp0
c__builtin__
frozenset
p1
((lp2
S'39'
p3
aS'38'
p4
aS'48'
p5
aS'41'
p6
atp7
Rp8
I1971
sg1
((lp9
g3
aS'2958'
p10
ag5
atp11
Rp12
I565
sg1
((lp13
S'267'
p14
atp15
Rp16
I584
sg1
((lp17
S'1435'
p18
atp19
Rp20
I765
sg1
((lp21
S'11'
p22
atp23
Rp24
I711
sg1
((lp25
g3
aS'170'
p26
ag6
atp27
Rp28
I610
sg1
((lp29
g3
aS'45'
p30
atp31
Rp32
I556
sg1
((lp33
S'405'
p34
atp35
Rp36
I879
sg1
((lp37
g3
ag4
aS'237'
p38
atp39
Rp40
I512
sg1
((lp41
S'258'
p42
ag3
atp43
Rp44
I627
sg1
((lp45
S'279'
p46
atp47
Rp48
I633
sg1
((lp49
S'32'
p50
aS'89'
p51
ag5
atp52
Rp53
I573
sg1
((lp54
S'264'
p55
atp56
Rp57
I895
sg1
((lp58
g3
aS'65'
p59
ag5
atp60
Rp61
I1786
sg1
((lp62
g3
aS'1393'
p63
ag5
atp64
Rp65
I506
sg1
((lp66
g3
aS'438'
p67
atp68
Rp69
I1230
sg1
((lp70
S'37'
p71
atp72
Rp73
I1074
sg1
((lp74
S'371'
p75
ag4
atp76
Rp77
I734
sg1
((lp78
S'156'
p79
atp80
Rp81
I830
sg1
((lp82
g4
ag38
atp83
Rp84
I683
sg1
((lp85
S'52'
p86
atp87
Rp88
I501
sg1
((lp89
g4
aS'105'
p90
atp91
Rp92
I635
sg1
((lp93
g4
aS'36'
p94
ag6
atp95
Rp96
I654
sg1
((lp97
S'55'
p98
atp99
Rp100
I704
sg1
((lp101
g3
aS'413'
p102
atp103
Rp104
I1126
sg1
((lp105
S'812'
p106
atp107
Rp108
I821
sg1
((lp109
S'2118'
p110
atp111
Rp112
I525
sg1
((lp113
g51
ag5
atp114
Rp115
I2776
sg1
((lp116
S'464'
p117
atp118
Rp119
I695
sg1
((lp120
g4
ag59
atp121
Rp122
I643
sg1
((lp123
g3
aS'592'
p124
ag5
atp125
Rp126
I514
sg1
((lp127
S'225'
p128
ag6
atp129
Rp130
I871
sg1
((lp131
S'201'
p132
ag5
atp133
Rp134
I674
sg1
((lp135
S'23'
p136
atp137
Rp138
I758
sg1
((lp139
S'13041'
p140
ag5
atp141
Rp142
I598
sg1
((lp143
S'16010'
p144
ag3
ag5
atp145
Rp146
I523
sg1
((lp147
S'425'
p148
atp149
Rp150
I606
sg1
((lp151
g3
ag94
ag6
atp152
Rp153
I555
sg1
((lp154
S'570'
p155
atp156
Rp157
I792
sg1
((lp158
g3
aS'242'
p159
atp160
Rp161
I560
sg1
((lp162
g3
aS'1146'
p163
ag5
atp164
Rp165
I617
sg1
((lp166
g5
aS'255'
p167
atp168
Rp169
I1047
sg1
((lp170
g50
ag6
atp171
Rp172
I3156
sg1
((lp173
S'147'
p174
ag3
ag5
atp175
Rp176
I742
sg1
((lp177
S'15618'
p178
atp179
Rp180
I614
sg1
((lp181
S'910'
p182
atp183
Rp184
I519
sg1
((lp185
g3
ag94
ag5
atp186
Rp187
I1083
sg1
((lp188
S'649'
p189
atp190
Rp191
I857
sg1
((lp192
g3
ag5
aS'79'
p193
atp194
Rp195
I695
sg1
((lp196
S'913'
p197
atp198
Rp199
I543
sg1
((lp200
g50
ag3
atp201
Rp202
I8234
sg1
((lp203
g50
ag5
ag6
atp204
Rp205
I2054
sg1
((lp206
S'389'
p207
ag3
atp208
Rp209
I538
sg1
((lp210
S'1144'
p211
atp212
Rp213
I599
sg1
((lp214
S'62'
p215
atp216
Rp217
I543
sg1
((lp218
g30
atp219
Rp220
I911
sg1
((lp221
g34
ag3
atp222
Rp223
I500
sg1
((lp224
g128
ag5
ag6
atp225
Rp226
I534
sg1
((lp227
g50
ag3
ag4
ag5
atp228
Rp229
I1230
sg1
((lp230
g3
ag5
ag167
atp231
Rp232
I809
sg1
((lp233
g26
atp234
Rp235
I3099
sg1
((lp236
S'766'
p237
atp238
Rp239
I797
sg1
((lp240
g3
aS'161'
p241
atp242
Rp243
I612
sg1
((lp244
S'677'
p245
ag5
atp246
Rp247
I666
sg1
((lp248
g50
ag59
atp249
Rp250
I767
sg1
((lp251
g3
aS'1578'
p252
atp253
Rp254
I572
sg1
((lp255
g4
ag94
atp256
Rp257
I2638
sg1
((lp258
g38
ag6
atp259
Rp260
I597
sg1
((lp261
S'3270'
p262
ag5
atp263
Rp264
I589
sg1
((lp265
g3
ag5
aS'49'
p266
atp267
Rp268
I613
sg1
((lp269
g51
atp270
Rp271
I3837
sg1
((lp272
S'426'
p273
atp274
Rp275
I508
sg1
((lp276
g3
aS'1004'
p277
atp278
Rp279
I582
sg1
((lp280
g3
ag136
atp281
Rp282
I510
sg1
((lp283
g5
aS'956'
p284
atp285
Rp286
I540
sg1
((lp287
g124
atp288
Rp289
I1227
sg1
((lp290
g4
ag5
atp291
Rp292
I7762
sg1
((lp293
g5
aS'544'
p294
atp295
Rp296
I504
sg1
((lp297
S'420'
p298
atp299
Rp300
I600
sg1
((lp301
g3
ag63
atp302
Rp303
I788
sg1
((lp304
S'78'
p305
atp306
Rp307
I1060
sg1
((lp308
S'2284'
p309
atp310
Rp311
I508
sg1
((lp312
S'12946'
p313
atp314
Rp315
I535
sg1
((lp316
g4
aS'110'
p317
atp318
Rp319
I2416
sg1
((lp320
S'310'
p321
ag5
atp322
Rp323
I1685
sg1
((lp324
g4
ag317
ag6
atp325
Rp326
I637
sg1
((lp327
S'1814'
p328
atp329
Rp330
I688
sg1
((lp331
g3
aS'286'
p332
atp333
Rp334
I721
sg1
((lp335
S'9'
p336
ag5
atp337
Rp338
I790
sg1
((lp339
g5
ag266
atp340
Rp341
I837
sg1
((lp342
g241
atp343
Rp344
I1010
sg1
((lp345
g5
aS'14098'
p346
atp347
Rp348
I697
sg1
((lp349
S'56'
p350
ag4
atp351
Rp352
I513
sg1
((lp353
S'10'
p354
atp355
Rp356
I712
sg1
((lp357
S'1417'
p358
atp359
Rp360
I536
sg1
((lp361
g3
aS'522'
p362
atp363
Rp364
I645
sg1
((lp365
S'103'
p366
atp367
Rp368
I812
sg1
((lp369
g336
ag3
atp370
Rp371
I831
sg1
((lp372
S'1344'
p373
atp374
Rp375
I753
sg1
((lp376
g75
atp377
Rp378
I782
sg1
((lp379
S'186'
p380
atp381
Rp382
I660
sg1
((lp383
g3
ag51
atp384
Rp385
I2711
sg1
((lp386
S'16217'
p387
atp388
Rp389
I1166
sg1
((lp390
S'271'
p391
atp392
Rp393
I2094
sg1
((lp394
S'885'
p395
atp396
Rp397
I576
sg1
((lp398
g284
atp399
Rp400
I911
sg1
((lp401
S'272'
p402
atp403
Rp404
I650
sg1
((lp405
g252
atp406
Rp407
I874
sg1
((lp408
S'379'
p409
atp410
Rp411
I677
sg1
((lp412
S'150'
p413
atp414
Rp415
I597
sg1
((lp416
g3
aS'179'
p417
atp418
Rp419
I652
sg1
((lp420
S'94'
p421
atp422
Rp423
I516
sg1
((lp424
S'249'
p425
ag5
atp426
Rp427
I675
sg1
((lp428
S'251'
p429
atp430
Rp431
I621
sg1
((lp432
g387
ag5
atp433
Rp434
I646
sg1
((lp435
g10
atp436
Rp437
I904
sg1
((lp438
S'789'
p439
atp440
Rp441
I648
sg1
((lp442
g3
ag321
ag6
atp443
Rp444
I621
sg1
((lp445
S'589'
p446
atp447
Rp448
I1119
sg1
((lp449
g245
atp450
Rp451
I1110
sg1
((lp452
g417
ag5
atp453
Rp454
I623
sg1
((lp455
g50
ag4
ag26
atp456
Rp457
I523
sg1
((lp458
g59
atp459
Rp460
I4472
sg1
((lp461
S'12925'
p462
ag5
atp463
Rp464
I808
sg1
((lp465
g3
ag4
ag26
atp466
Rp467
I1950
sg1
((lp468
S'270'
p469
atp470
Rp471
I1734
sg1
((lp472
S'976'
p473
atp474
Rp475
I817
sg1
((lp476
g332
atp477
Rp478
I1183
sg1
((lp479
g34
ag5
atp480
Rp481
I525
sg1
((lp482
g128
ag3
ag6
atp483
Rp484
I721
sg1
((lp485
g26
ag3
ag4
ag6
atp486
Rp487
I601
sg1
((lp488
S'338'
p489
atp490
Rp491
I1274
sg1
((lp492
g128
ag3
atp493
Rp494
I2330
sg1
((lp495
g3
ag305
atp496
Rp497
I767
sg1
((lp498
g63
ag5
atp499
Rp500
I668
sg1
((lp501
S'19'
p502
atp503
Rp504
I1005
sg1
((lp505
S'824'
p506
ag5
atp507
Rp508
I701
sg1
((lp509
S'704'
p510
atp511
Rp512
I526
sg1
((lp513
S'2238'
p514
ag5
atp515
Rp516
I954
sg1
((lp517
g50
ag3
ag4
ag6
atp518
Rp519
I617
sg1
((lp520
g362
atp521
Rp522
I974
sg1
((lp523
S'548'
p524
atp525
Rp526
I1137
sg1
((lp527
S'101'
p528
atp529
Rp530
I2237
sg1
((lp531
S'1986'
p532
atp533
Rp534
I614
sg1
((lp535
g50
ag3
ag6
atp536
Rp537
I2331
sg1
((lp538
S'1783'
p539
atp540
Rp541
I600
sg1
((lp542
g5
aS'229'
p543
atp544
Rp545
I545
sg1
((lp546
g469
ag5
atp547
Rp548
I951
sg1
((lp549
g462
atp550
Rp551
I1467
sg1
((lp552
S'269'
p553
atp554
Rp555
I701
sg1
((lp556
g128
ag3
ag5
atp557
Rp558
I1396
sg1
((lp559
S'846'
p560
atp561
Rp562
I595
sg1
((lp563
S'60'
p564
ag3
atp565
Rp566
I976
sg1
((lp567
g3
ag294
atp568
Rp569
I524
sg1
((lp570
g3
aS'783'
p571
atp572
Rp573
I640
sg1
((lp574
g3
ag317
ag5
atp575
Rp576
I994
sg1
((lp577
g469
ag3
atp578
Rp579
I1183
sg1
((lp580
g3
ag59
atp581
Rp582
I2765
sg1
((lp583
S'3616'
p584
atp585
Rp586
I654
sg1
((lp587
g425
atp588
Rp589
I1160
sg1
((lp590
g3
ag245
atp591
Rp592
I635
sg1
((lp593
g3
aS'533'
p594
atp595
Rp596
I918
sg1
((lp597
g317
atp598
Rp599
I2794
sg1
((lp600
g6
atp601
Rp602
I14945
sg1
((lp603
g50
ag38
atp604
Rp605
I566
sg1
((lp606
S'10515'
p607
atp608
Rp609
I882
sg1
((lp610
g3
ag262
atp611
Rp612
I571
sg1
((lp613
g50
ag5
atp614
Rp615
I7862
sg1
((lp616
g50
atp617
Rp618
I15167
sg1
((lp619
g193
atp620
Rp621
I1600
sg1
((lp622
g321
ag5
ag6
atp623
Rp624
I546
sg1
((lp625
S'31'
p626
atp627
Rp628
I920
sg1
((lp629
S'1043'
p630
atp631
Rp632
I551
sg1
((lp633
S'878'
p634
atp635
Rp636
I570
sg1
((lp637
g3
ag5
atp638
Rp639
I28184
sg1
((lp640
S'4336'
p641
atp642
Rp643
I589
sg1
((lp644
S'2199'
p645
atp646
Rp647
I597
sg1
((lp648
S'1135'
p649
atp650
Rp651
I667
sg1
((lp652
g159
atp653
Rp654
I911
sg1
((lp655
S'374'
p656
atp657
Rp658
I584
sg1
((lp659
g5
aS'185'
p660
atp661
Rp662
I812
sg1
((lp663
g3
ag4
ag71
atp664
Rp665
I671
sg1
((lp666
g50
ag128
atp667
Rp668
I646
sg1
((lp669
g3
ag321
atp670
Rp671
I1837
sg1
((lp672
g391
ag6
atp673
Rp674
I581
sg1
((lp675
S'53'
p676
atp677
Rp678
I509
sg1
((lp679
g50
ag3
ag5
atp680
Rp681
I5330
sg1
((lp682
g50
ag4
ag5
ag6
atp683
Rp684
I539
sg1
((lp685
S'2'
p686
atp687
Rp688
I549
sg1
((lp689
g174
atp690
Rp691
I1779
sg1
((lp692
g3
ag71
atp693
Rp694
I690
sg1
((lp695
g90
atp696
Rp697
I657
sg1
((lp698
g4
ag5
ag332
atp699
Rp700
I558
sg1
((lp701
g3
aS'479'
p702
atp703
Rp704
I580
sg1
((lp705
g63
atp706
Rp707
I1161
sg1
((lp708
S'18'
p709
atp710
Rp711
I860
sg1
((lp712
g3
ag462
atp713
Rp714
I920
sg1
((lp715
S'1714'
p716
atp717
Rp718
I507
sg1
((lp719
g3
ag38
ag5
atp720
Rp721
I1242
sg1
((lp722
S'8978'
p723
atp724
Rp725
I606
sg1
((lp726
g59
ag5
ag6
atp727
Rp728
I662
sg1
((lp729
g75
ag3
ag4
atp730
Rp731
I510
sg1
((lp732
g3
ag284
atp733
Rp734
I600
sg1
((lp735
g71
ag5
atp736
Rp737
I560
sg1
((lp738
g3
ag4
ag332
atp739
Rp740
I701
sg1
((lp741
S'155'
p742
atp743
Rp744
I546
sg1
((lp745
S'1327'
p746
atp747
Rp748
I1786
sg1
((lp749
S'260'
p750
atp751
Rp752
I691
sg1
((lp753
S'297'
p754
atp755
Rp756
I525
sg1
((lp757
g543
atp758
Rp759
I820
sg1
((lp760
g4
ag5
ag26
atp761
Rp762
I1512
sg1
((lp763
g5
ag102
atp764
Rp765
I1134
sg1
((lp766
g3
ag59
ag6
atp767
Rp768
I791
sg1
((lp769
g277
atp770
Rp771
I1102
sg1
((lp772
S'301'
p773
atp774
Rp775
I1204
sg1
((lp776
g709
ag3
atp777
Rp778
I540
sg1
((lp779
S'340'
p780
atp781
Rp782
I643
sg1
((lp783
g3
ag38
atp784
Rp785
I1922
sg1
((lp786
g50
ag26
atp787
Rp788
I530
sg1
((lp789
g50
ag3
ag59
atp790
Rp791
I506
sg1
((lp792
g746
ag5
atp793
Rp794
I959
sg1
((lp795
g50
ag3
ag5
ag6
atp796
Rp797
I1637
sg1
((lp798
g3
ag660
atp799
Rp800
I824
sg1
((lp801
g50
ag4
atp802
Rp803
I2759
sg1
((lp804
g506
ag3
atp805
Rp806
I702
sg1
((lp807
g4
ag94
ag5
atp808
Rp809
I1313
sg1
((lp810
g626
ag3
atp811
Rp812
I535
sg1
((lp813
g387
ag3
atp814
Rp815
I720
sg1
((lp816
g346
atp817
Rp818
I1291
sg1
((lp819
g128
ag4
atp820
Rp821
I680
sg1
((lp822
g3
ag55
atp823
Rp824
I595
sg1
((lp825
g3
ag5
aS'475'
p826
atp827
Rp828
I1089
sg1
((lp829
g94
ag6
atp830
Rp831
I683
sg1
((lp832
S'740'
p833
ag5
atp834
Rp835
I519
sg1
((lp836
S'15832'
p837
ag3
atp838
Rp839
I707
sg1
((lp840
g4
atp841
Rp842
I15596
sg1
((lp843
g163
ag6
atp844
Rp845
I501
sg1
((lp846
S'209'
p847
atp848
Rp849
I611
sg1
((lp850
g128
ag5
atp851
Rp852
I1732
sg1
((lp853
g5
ag305
atp854
Rp855
I814
sg1
((lp856
g469
ag3
ag5
atp857
Rp858
I730
sg1
((lp859
S'259'
p860
atp861
Rp862
I684
sg1
((lp863
g417
atp864
Rp865
I998
sg1
((lp866
g3
ag51
ag6
atp867
Rp868
I617
sg1
((lp869
S'806'
p870
atp871
Rp872
I741
sg1
((lp873
S'916'
p874
atp875
Rp876
I543
sg1
((lp877
g140
atp878
Rp879
I1051
sg1
((lp880
g50
ag4
ag5
atp881
Rp882
I1636
sg1
((lp883
g3
ag5
ag102
atp884
Rp885
I780
sg1
((lp886
g10
ag5
atp887
Rp888
I772
sg1
((lp889
g3
ag489
ag5
atp890
Rp891
I515
sg1
((lp892
g833
atp893
Rp894
I1181
sg1
((lp895
g174
ag3
atp896
Rp897
I1132
sg1
((lp898
g94
atp899
Rp900
I2936
sg1
((lp901
g50
ag51
atp902
Rp903
I712
sg1
((lp904
S'549'
p905
ag5
atp906
Rp907
I512
sg1
((lp908
g826
atp909
Rp910
I2167
sg1
((lp911
S'1693'
p912
atp913
Rp914
I524
sg1
((lp915
g50
ag3
ag4
atp916
Rp917
I1815
sg1
((lp918
g3
ag543
atp919
Rp920
I503
sg1
((lp921
g514
ag6
atp922
Rp923
I566
sg1
((lp924
g51
ag5
ag6
atp925
Rp926
I605
sg1
((lp927
g3
ag5
ag26
atp928
Rp929
I1185
sg1
((lp930
S'1872'
p931
atp932
Rp933
I572
sg1
((lp934
g3
ag528
ag5
atp935
Rp936
I944
sg1
((lp937
g524
ag3
atp938
Rp939
I662
sg1
((lp940
S'703'
p941
atp942
Rp943
I806
sg1
((lp944
g3
ag5
ag305
atp945
Rp946
I604
sg1
((lp947
g502
ag3
atp948
Rp949
I589
sg1
((lp950
g528
ag5
atp951
Rp952
I1308
sg1
((lp953
g3
ag462
ag5
atp954
Rp955
I582
sg1
((lp956
g294
atp957
Rp958
I851
sg1
((lp959
g5
ag26
atp960
Rp961
I1531
sg1
((lp962
g128
atp963
Rp964
I3257
sg1
((lp965
g3
ag489
atp966
Rp967
I740
sg1
((lp968
g514
atp969
Rp970
I1715
sg1
((lp971
S'675'
p972
atp973
Rp974
I601
sg1
((lp975
S'1355'
p976
atp977
Rp978
I512
sg1
((lp979
g3
ag26
atp980
Rp981
I1988
sg1
((lp982
g489
ag5
atp983
Rp984
I778
sg1
((lp985
g4
ag26
atp986
Rp987
I2896
sg1
((lp988
g3
ag167
atp989
Rp990
I1043
sg1
((lp991
g3
ag5
ag346
atp992
Rp993
I539
sg1
((lp994
g3
ag4
atp995
Rp996
I9953
sg1
((lp997
S'16011'
p998
atp999
Rp1000
I669
sg1
((lp1001
g167
atp1002
Rp1003
I1474
sg1
((lp1004
g3
ag5
ag660
atp1005
Rp1006
I553
sg1
((lp1007
g38
atp1008
Rp1009
I3032
sg1
((lp1010
S'1600'
p1011
atp1012
Rp1013
I801
sg1
((lp1014
g571
atp1015
Rp1016
I965
sg1
((lp1017
g4
aS'790'
p1018
atp1019
Rp1020
I508
sg1
((lp1021
S'961'
p1022
atp1023
Rp1024
I540
sg1
((lp1025
g3
ag4
ag317
ag5
atp1026
Rp1027
I988
sg1
((lp1028
S'2046'
p1029
atp1030
Rp1031
I625
sg1
((lp1032
g1018
atp1033
Rp1034
I523
sg1
((lp1035
S'1715'
p1036
atp1037
Rp1038
I590
sg1
((lp1039
g42
atp1040
Rp1041
I987
sg1
((lp1042
S'604'
p1043
ag3
ag5
atp1044
Rp1045
I520
sg1
((lp1046
S'117'
p1047
ag3
atp1048
Rp1049
I554
sg1
((lp1050
g3
ag4
ag5
ag26
atp1051
Rp1052
I1172
sg1
((lp1053
S'488'
p1054
atp1055
Rp1056
I720
sg1
((lp1057
g321
ag6
atp1058
Rp1059
I715
sg1
((lp1060
g132
ag3
atp1061
Rp1062
I667
sg1
((lp1063
g564
atp1064
Rp1065
I1489
sg1
((lp1066
S'1198'
p1067
atp1068
Rp1069
I660
sg1
((lp1070
g262
atp1071
Rp1072
I950
sg1
((lp1073
g905
atp1074
Rp1075
I843
sg1
((lp1076
g1043
atp1077
Rp1078
I1209
sg1
((lp1079
g94
ag5
atp1080
Rp1081
I1365
sg1
((lp1082
g594
atp1083
Rp1084
I1487
sg1
((lp1085
g3
aS'123'
p1086
atp1087
Rp1088
I725
sg1
((lp1089
g3
ag746
ag5
atp1090
Rp1091
I716
sg1
((lp1092
S'623'
p1093
atp1094
Rp1095
I525
sg1
((lp1096
g3
ag425
atp1097
Rp1098
I751
sg1
((lp1099
g3
ag826
atp1100
Rp1101
I1492
sg1
((lp1102
g837
ag5
atp1103
Rp1104
I581
sg1
((lp1105
g469
ag6
atp1106
Rp1107
I506
sg1
((lp1108
g5
ag332
atp1109
Rp1110
I568
sg1
((lp1111
g5
ag55
atp1112
Rp1113
I533
sg1
((lp1114
g3
ag4
ag94
ag6
atp1115
Rp1116
I536
sg1
((lp1117
g51
ag5
ag4
atp1118
Rp1119
I576
sg1
((lp1120
g266
atp1121
Rp1122
I1120
sg1
((lp1123
g837
atp1124
Rp1125
I1143
sg1
((lp1126
g50
ag321
atp1127
Rp1128
I540
sg1
((lp1129
g51
ag6
atp1130
Rp1131
I730
sg1
((lp1132
S'535'
p1133
atp1134
Rp1135
I718
sg1
((lp1136
g321
atp1137
Rp1138
I2594
sg1
((lp1139
g207
atp1140
Rp1141
I831
sg1
((lp1142
g3
ag1086
ag5
atp1143
Rp1144
I508
sg1
((lp1145
g3
ag746
atp1146
Rp1147
I1136
sg1
((lp1148
g5
ag649
atp1149
Rp1150
I538
sg1
((lp1151
S'865'
p1152
atp1153
Rp1154
I632
sg1
((lp1155
g702
atp1156
Rp1157
I926
sg1
((lp1158
g3
ag4
ag94
ag5
atp1159
Rp1160
I1050
sg1
((lp1161
S'208'
p1162
atp1163
Rp1164
I529
sg1
((lp1165
g3
ag4
ag94
atp1166
Rp1167
I1851
sg1
((lp1168
S'581'
p1169
atp1170
Rp1171
I574
sg1
((lp1172
S'441'
p1173
atp1174
Rp1175
I609
sg1
((lp1176
g132
atp1177
Rp1178
I1133
sg1
((lp1179
g1043
ag3
atp1180
Rp1181
I774
sg1
((lp1182
g4
ag71
atp1183
Rp1184
I1012
sg1
((lp1185
g1047
atp1186
Rp1187
I1026
sg1
((lp1188
g773
ag5
atp1189
Rp1190
I657
sg1
((lp1191
g4
ag51
atp1192
Rp1193
I761
sg1
((lp1194
g277
ag5
atp1195
Rp1196
I613
sg1
((lp1197
g3
ag51
ag5
ag6
atp1198
Rp1199
I521
sg1
((lp1200
g524
ag5
atp1201
Rp1202
I656
sg1
((lp1203
g3
ag124
atp1204
Rp1205
I721
sg1
((lp1206
g3
ag6
atp1207
Rp1208
I11103
sg1
((lp1209
g67
atp1210
Rp1211
I1863
sg1
((lp1212
g391
ag3
atp1213
Rp1214
I1412
sg1
((lp1215
S'2437'
p1216
atp1217
Rp1218
I571
sg1
((lp1219
S'947'
p1220
atp1221
Rp1222
I591
sg1
((lp1223
g1086
atp1224
Rp1225
I1302
sg1
((lp1226
g564
ag3
ag5
atp1227
Rp1228
I606
sg1
((lp1229
g773
ag3
atp1230
Rp1231
I711
sg1
((lp1232
g3
ag4
ag5
atp1233
Rp1234
I5976
sg1
((lp1235
S'681'
p1236
atp1237
Rp1238
I704
sg1
((lp1239
g5
ag571
atp1240
Rp1241
I583
sg1
((lp1242
S'4883'
p1243
atp1244
Rp1245
I521
sg1
((lp1246
g38
ag5
atp1247
Rp1248
I1677
sg1
((lp1249
g3
ag10
atp1250
Rp1251
I649
sg1
((lp1252
g163
ag5
atp1253
Rp1254
I805
sg1
((lp1255
g174
ag5
atp1256
Rp1257
I1036
sg1
((lp1258
S'855'
p1259
atp1260
Rp1261
I519
sg1
((lp1262
g59
ag6
atp1263
Rp1264
I994
sg1
((lp1265
g189
ag3
atp1266
Rp1267
I531
sg1
((lp1268
g4
ag332
atp1269
Rp1270
I1023
sg1
((lp1271
g3
ag266
atp1272
Rp1273
I759
sg1
((lp1274
g50
ag3
ag51
atp1275
Rp1276
I531
sg1
((lp1277
g3
ag67
ag5
atp1278
Rp1279
I764
sg1
((lp1280
g3
ag155
atp1281
Rp1282
I558
sg1
((lp1283
S'261'
p1284
atp1285
Rp1286
I523
sg1
((lp1287
S'30'
p1288
atp1289
Rp1290
I540
sg1
((lp1291
g5
ag362
atp1292
Rp1293
I582
sg1
((lp1294
S'407'
p1295
atp1296
Rp1297
I693
sg1
((lp1298
g502
ag5
atp1299
Rp1300
I590
sg1
((lp1301
S'76'
p1302
ag3
atp1303
Rp1304
I528
sg1
((lp1305
g3
ag528
atp1306
Rp1307
I1397
sg1
((lp1308
g998
ag144
atp1309
Rp1310
I648
sg1
((lp1311
g144
atp1312
Rp1313
I1316
sg1
((lp1314
g4
ag317
ag5
atp1315
Rp1316
I1291
sg1
((lp1317
S'809'
p1318
atp1319
Rp1320
I626
sg1
((lp1321
g3
ag94
atp1322
Rp1323
I1928
sg1
((lp1324
g26
ag6
atp1325
Rp1326
I787
sg1
((lp1327
g3
ag425
ag5
atp1328
Rp1329
I510
sg1
((lp1330
g163
atp1331
Rp1332
I1426
sg1
((lp1333
g5
ag607
atp1334
Rp1335
I524
sg1
((lp1336
g833
ag3
atp1337
Rp1338
I755
sg1
((lp1339
g98
ag4
atp1340
Rp1341
I639
sg1
((lp1342
g317
ag5
atp1343
Rp1344
I1310
sg1
((lp1345
g514
ag3
ag5
atp1346
Rp1347
I788
sg1
((lp1348
g4
ag6
atp1349
Rp1350
I3822
sg1
((lp1351
g5
ag826
atp1352
Rp1353
I1424
sg1
((lp1354
g140
ag3
atp1355
Rp1356
I679
sg1
((lp1357
g124
ag5
atp1358
Rp1359
I742
sg1
((lp1360
g3
ag607
atp1361
Rp1362
I528
sg1
((lp1363
g3
ag5
ag6
atp1364
Rp1365
I7249
sg1
((lp1366
g336
ag3
ag5
atp1367
Rp1368
I546
sg1
((lp1369
g67
ag5
atp1370
Rp1371
I1009
sg1
((lp1372
g3
ag59
ag5
ag6
atp1373
Rp1374
I546
sg1
((lp1375
g391
ag3
ag5
atp1376
Rp1377
I826
sg1
((lp1378
g3
ag4
ag317
atp1379
Rp1380
I1604
sg1
((lp1381
g1047
ag5
atp1382
Rp1383
I601
sg1
((lp1384
S'107'
p1385
atp1386
Rp1387
I765
sg1
((lp1388
S'398'
p1389
atp1390
Rp1391
I515
sg1
((lp1392
g469
ag391
atp1393
Rp1394
I671
sg1
((lp1395
g50
ag4
ag6
atp1396
Rp1397
I800
sg1
((lp1398
g144
ag5
atp1399
Rp1400
I723
sg1
((lp1401
g5
atp1402
Rp1403
I42135
sg1
((lp1404
g514
ag3
atp1405
Rp1406
I1275
sg1
((lp1407
S'1239'
p1408
atp1409
Rp1410
I569
sg1
((lp1411
S'2383'
p1412
atp1413
Rp1414
I569
sg1
((lp1415
g317
ag6
atp1416
Rp1417
I648
sg1
((lp1418
g3
ag193
atp1419
Rp1420
I1101
sg1
((lp1421
S'396'
p1422
atp1423
Rp1424
I674
sg1
((lp1425
S'175'
p1426
atp1427
Rp1428
I970
sg1
((lp1429
g826
ag6
atp1430
Rp1431
I570
sg1
((lp1432
g144
ag3
atp1433
Rp1434
I820
sg1
((lp1435
g702
ag5
atp1436
Rp1437
I513
sg1
((lp1438
g3
atp1439
Rp1440
I50675
sg1
((lp1441
g336
atp1442
Rp1443
I1372
sg1
((lp1444
S'334'
p1445
atp1446
Rp1447
I774
sg1
((lp1448
g3
ag594
ag5
atp1449
Rp1450
I630
sg1
((lp1451
g155
ag5
atp1452
Rp1453
I514
sg1
((lp1454
g3
ag321
ag5
atp1455
Rp1456
I1341
sg1
((lp1457
S'571'
p1458
atp1459
Rp1460
I513
sg1
((lp1461
g5
ag193
atp1462
Rp1463
I889
sg1
((lp1464
g1302
atp1465
Rp1466
I869
sg1
((lp1467
g3
ag4
ag51
atp1468
Rp1469
I586
sg1
((lp1470
g4
ag6
ag26
atp1471
Rp1472
I776
sg1
((lp1473
g350
atp1474
Rp1475
I535
sg1
((lp1476
S'1067'
p1477
atp1478
Rp1479
I584
sg1
((lp1480
g102
atp1481
Rp1482
I1880
sg1
((lp1483
g4
ag71
ag5
atp1484
Rp1485
I555
sg1
((lp1486
g59
ag5
atp1487
Rp1488
I2513
sg1
((lp1489
g3
ag4
ag128
atp1490
Rp1491
I535
sg1
((lp1492
g3
ag79
atp1493
Rp1494
I582
sg1
((lp1495
g3
ag163
atp1496
Rp1497
I971
sg1
((lp1498
g5
ag446
atp1499
Rp1500
I627
sg1
((lp1501
g594
ag5
atp1502
Rp1503
I859
sg1
((lp1504
g75
ag3
atp1505
Rp1506
I516
sg1
((lp1507
S'12929'
p1508
atp1509
Rp1510
I742
sg1
((lp1511
S'664'
p1512
atp1513
Rp1514
I752
sg1
((lp1515
g564
ag5
atp1516
Rp1517
I812
sg1
((lp1518
g241
ag5
atp1519
Rp1520
I512
sg1
((lp1521
g5
ag6
atp1522
Rp1523
I8886
sg1
((lp1524
g1043
ag5
atp1525
Rp1526
I687
sg1
((lp1527
g3
ag446
atp1528
Rp1529
I708
sg1
((lp1530
g3
ag51
ag5
atp1531
Rp1532
I2108
sg1
((lp1533
g391
ag5
atp1534
Rp1535
I1088
sg1
((lp1536
S'772'
p1537
atp1538
Rp1539
I752
sg1
((lp1540
g366
ag3
atp1541
Rp1542
I507
sg1
((lp1543
g3
ag317
atp1544
Rp1545
I1623
sg1
((lp1546
g1426
ag3
atp1547
Rp1548
I629
sg1
((lp1549
g3
ag346
atp1550
Rp1551
I799
sg1
((lp1552
S'798'
p1553
atp1554
Rp1555
I503
sg1
((lp1556
g4
ag5
ag6
atp1557
Rp1558
I2351
sg1
((lp1559
g506
atp1560
Rp1561
I1210
sg1
((lp1562
g660
atp1563
Rp1564
I1376
sg1
((lp1565
S'10446'
p1566
atp1567
Rp1568
I618
sg1
((lp1569
g42
ag5
atp1570
Rp1571
I642
sg1
((lp1572
S'449'
p1573
atp1574
Rp1575
I690
sg1
((lp1576
g3
ag4
ag6
atp1577
Rp1578
I2991
sg1
((lp1579
g1086
ag5
atp1580
Rp1581
I796
s.